; Function Attrs: mustprogress uwtable
define void @_ZN5Ipopt13LibraryLoader13unloadLibraryEv(ptr nocapture noundef nonnull readonly align 8 dereferenceable(56) %0) local_unnamed_addr #0 align 2 personality ptr @__gxx_personality_v0 {
  %2 = alloca %"class.std::__cxx11::basic_string", align 8
  %3 = alloca %"class.std::allocator", align 1
  %4 = alloca %"class.std::__cxx11::basic_string", align 8
  %5 = alloca %"class.std::allocator", align 1
  %6 = getelementptr inbounds i8, ptr %0, i64 48
  %7 = load ptr, ptr %6, align 8
  %8 = icmp eq ptr %7, null
  br i1 %8, label %24, label %9

9:                                                ; preds = %1
  %10 = tail call i32 @dlclose(ptr noundef nonnull %7) #11
  %.not = icmp eq i32 %10, 0
  br i1 %.not, label %24, label %11

11:                                               ; preds = %9
  %12 = tail call ptr @__cxa_allocate_exception(i64 112) #11
  %13 = tail call ptr @dlerror() #11
  call void @_ZNSaIcEC1Ev(ptr noundef nonnull align 1 dereferenceable(1) %3) #11
  invoke void @_ZNSt7__cxx1112basic_stringIcSt11char_traitsIcESaIcEEC2IS3_EEPKcRKS3_(ptr noundef nonnull align 8 dereferenceable(32) %2, ptr noundef %13, ptr noundef nonnull align 1 dereferenceable(1) %3)
          to label %14 unwind label %.thread

14:                                               ; preds = %11
  call void @_ZNSaIcEC1Ev(ptr noundef nonnull align 1 dereferenceable(1) %5) #11
  invoke void @_ZNSt7__cxx1112basic_stringIcSt11char_traitsIcESaIcEEC2IS3_EEPKcRKS3_(ptr noundef nonnull align 8 dereferenceable(32) %4, ptr noundef nonnull @.str.1, ptr noundef nonnull align 1 dereferenceable(1) %5)
          to label %15 unwind label %18

15:                                               ; preds = %14
  invoke void @_ZN5Ipopt23DYNAMIC_LIBRARY_FAILUREC2ERKNSt7__cxx1112basic_stringIcSt11char_traitsIcESaIcEEES8_i(ptr noundef nonnull align 8 dereferenceable(112) %12, ptr noundef nonnull align 8 dereferenceable(32) %2, ptr noundef nonnull align 8 dereferenceable(32) %4, i32 noundef 94)
          to label %16 unwind label %20

16:                                               ; preds = %15
  invoke void @__cxa_throw(ptr nonnull %12, ptr nonnull @_ZTIN5Ipopt23DYNAMIC_LIBRARY_FAILUREE, ptr nonnull @_ZN5Ipopt23DYNAMIC_LIBRARY_FAILURED2Ev) #12
          to label %26 unwind label %20

.thread:                                          ; preds = %11
  %17 = landingpad { ptr, i32 }
          cleanup
  call void @_ZNSaIcED1Ev(ptr noundef nonnull align 1 dereferenceable(1) %3) #11
  br label %23

18:                                               ; preds = %14
  %19 = landingpad { ptr, i32 }
          cleanup
  br label %22

20:                                               ; preds = %16, %15
  %.0 = phi i1 [ false, %16 ], [ true, %15 ]
  %21 = landingpad { ptr, i32 }
          cleanup
  call void @_ZNSt7__cxx1112basic_stringIcSt11char_traitsIcESaIcEED1Ev(ptr noundef nonnull align 8 dereferenceable(32) %4) #11
  br label %22

22:                                               ; preds = %18, %20
  %.pn = phi { ptr, i32 } [ %21, %20 ], [ %19, %18 ]
  %.1 = phi i1 [ %.0, %20 ], [ true, %18 ]
  call void @_ZNSaIcED1Ev(ptr noundef nonnull align 1 dereferenceable(1) %5) #11
  call void @_ZNSt7__cxx1112basic_stringIcSt11char_traitsIcESaIcEED1Ev(ptr noundef nonnull align 8 dereferenceable(32) %2) #11
  call void @_ZNSaIcED1Ev(ptr noundef nonnull align 1 dereferenceable(1) %3) #11
  br i1 %.1, label %23, label %25

23:                                               ; preds = %.thread, %22
  %.pn.pn13 = phi { ptr, i32 } [ %17, %.thread ], [ %.pn, %22 ]
  call void @__cxa_free_exception(ptr %12) #11
  br label %25

24:                                               ; preds = %1, %9
  ret void

25:                                               ; preds = %22, %23
  %.pn.pn12 = phi { ptr, i32 } [ %.pn, %22 ], [ %.pn.pn13, %23 ]
  resume { ptr, i32 } %.pn.pn12

26:                                               ; preds = %16
  unreachable
}